; Function Attrs: nofree norecurse nounwind uwtable
define dso_local void @MarkLocalBufferDirty(i32 noundef %0) local_unnamed_addr #7 {
  %2 = xor i32 %0, -1
  %3 = load ptr, ptr @LocalBufferDescriptors, align 8
  %4 = zext i32 %2 to i64
  %5 = getelementptr inbounds nuw %struct.BufferDesc, ptr %3, i64 %4, i32 2
  %6 = load volatile i32, ptr %5, align 4
  %7 = and i32 %6, 8388608
  %.not = icmp eq i32 %7, 0
  br i1 %.not, label %8, label %11

8:                                                ; preds = %1
  %9 = load i64, ptr getelementptr inbounds nuw (i8, ptr @pgBufferUsage, i64 48), align 8
  %10 = add i64 %9, 1
  store i64 %10, ptr getelementptr inbounds nuw (i8, ptr @pgBufferUsage, i64 48), align 8
  br label %11

11:                                               ; preds = %8, %1
  %12 = or i32 %6, 8388608
  store volatile i32 %12, ptr %5, align 4
  ret void
}